Certificate:
    Data:
        Version: 3 (0x2)
        Serial Number: 345 (0x159)
        Signature Algorithm: sha256WithRSAEncryption
        Issuer: CN = Intermediate-CA, O = Piter.NL, OU = crypto
        Validity
            Not Before: Mar 19 18:23:35 2023 GMT
            Not After : Aug  4 18:23:35 2050 GMT
        Subject: CN = Big HyperCorp Ltd., O = hypercorp.comp, OU = Acquisition
        Subject Public Key Info:
            Public Key Algorithm: rsaEncryption
                RSA Public-Key: (4096 bit)
                Modulus:
                    00:dc:96:e0:1b:5b:d7:b4:21:06:10:bd:b7:a3:86:
                    1c:8e:81:40:68:97:a4:b8:39:67:a3:18:07:e8:ab:
                    89:c0:4d:c6:de:5f:fb:c2:ad:22:0b:7e:40:60:68:
                    2c:6b:95:c9:8f:92:61:61:5b:b1:ca:7e:7a:75:a0:
                    53:22:5f:2e:21:2c:e6:38:a5:ee:84:2f:fb:05:2b:
                    49:86:6c:cc:ed:3a:1c:1b:43:a8:53:4d:14:d8:1b:
                    76:f7:76:2a:d9:a5:92:98:51:f5:21:0a:e4:77:87:
                    ea:fb:53:39:74:92:ef:28:da:bb:1b:da:52:64:45:
                    21:94:9d:ab:b3:20:91:09:dc:84:c1:ec:23:b4:50:
                    58:11:30:27:80:0c:4c:62:15:b0:2a:aa:6a:76:8d:
                    9f:cb:5b:65:7b:c1:6d:43:85:d0:a3:67:23:b4:36:
                    d2:96:4b:32:6c:e9:76:28:77:60:7e:47:76:8d:81:
                    00:7f:3a:0f:51:e4:de:97:d2:d9:0a:50:ed:2e:8f:
                    0a:3b:3b:53:49:47:f8:25:61:ed:02:80:8b:19:ee:
                    9a:cd:9c:0f:50:19:8e:3a:c1:57:f6:c5:39:f6:94:
                    39:6f:b5:25:8e:21:67:d6:bd:53:00:73:2d:85:43:
                    1f:99:ed:ce:6a:99:55:b1:d1:25:dc:11:f9:9a:31:
                    96:b7:a8:0c:e5:2c:65:91:ab:f5:bc:83:17:5d:5a:
                    ed:36:9c:49:f8:ce:15:72:11:ab:e6:50:a8:17:7f:
                    5d:bb:26:a9:03:8a:5d:a3:55:48:3c:9a:64:51:fb:
                    e8:3c:18:66:68:f8:b4:90:67:ff:b9:35:3d:dc:94:
                    03:7b:6e:25:6f:ab:13:c2:24:71:b3:b8:16:56:bf:
                    04:6e:c1:14:12:b7:14:aa:29:2f:77:04:76:69:e8:
                    8b:3f:dd:83:ba:e7:90:35:ce:8b:73:f8:db:b4:3d:
                    19:91:a6:79:0b:86:16:2f:c9:02:26:f7:74:9f:88:
                    c2:ed:b4:b8:f5:22:41:c6:8d:db:9c:bc:ae:b8:2e:
                    93:cc:1d:59:0e:a7:3b:94:c8:39:c7:bd:b2:f4:b1:
                    85:05:0b:86:b4:15:6c:05:d4:5f:28:02:6e:6d:81:
                    58:fd:a8:75:fb:54:ed:e6:97:82:73:af:e7:a4:d3:
                    7e:4d:fa:6b:74:0b:e0:cd:a9:b0:f3:56:5d:83:77:
                    5d:79:2a:12:c5:f1:0a:30:2e:9b:4d:d5:3b:e5:26:
                    a3:00:55:72:37:b6:75:c7:6b:2d:73:65:ef:c3:5f:
                    2a:da:f7:69:a3:06:79:04:e5:d8:73:22:6b:ed:7b:
                    10:54:4d:a3:52:4f:58:bb:86:2f:0b:47:f7:15:5c:
                    5f:12:93
                Exponent: 65537 (0x10001)
        X509v3 extensions:
            X509v3 Key Usage: 
                Digital Signature
            X509v3 Subject Alternative Name: 
                DNS:my.server.hypercorp.comp, DNS:alt-server.hypercorp.comp, DNS:localhost, email:Admin@hypercorp.comp
            X509v3 Subject Key Identifier: 
                23:4E:55:88:5F:66:F1:B0:70:33:EA:51:50:8F:9F:44:53:C3:00:65
            X509v3 Authority Key Identifier: 
                keyid:36:6B:A6:2F:D6:9A:74:7B:0F:D5:88:F0:AB:36:D3:F3:A6:6F:95:FC

    Signature Algorithm: sha256WithRSAEncryption
         ae:15:59:eb:2d:bf:d6:d8:fd:39:27:e5:e6:20:9b:6e:28:b6:
         2b:ca:3e:f7:06:51:95:71:e9:e2:b7:51:c8:f1:d8:05:b9:a4:
         91:4c:26:4a:8c:77:2c:30:5d:12:13:f5:b7:ec:99:27:da:9a:
         60:02:56:5c:a9:69:38:21:13:71:fb:fc:bd:7f:db:d9:1d:b2:
         fe:eb:1e:8b:d2:67:5b:30:e7:60:a6:38:0d:fb:f5:97:df:f6:
         56:c3:d4:13:d9:f5:25:77:e8:eb:e5:46:92:7f:78:e7:f1:a7:
         80:39:97:07:c9:e0:b6:39:77:0f:7d:fc:ac:a9:8e:cc:68:c6:
         5c:c9:f2:20:af:41:03:65:7d:0d:97:c9:4d:c5:c3:06:77:f4:
         13:81:bf:47:13:e3:d9:11:22:b6:37:eb:4b:b8:9c:ea:c8:8c:
         d1:7a:db:f7:16:8c:9e:17:a5:25:ee:20:4d:33:6b:8c:65:df:
         db:d7:86:f4:49:39:40:e7:b4:1c:08:9d:f1:f1:3b:42:12:ae:
         02:be:d7:c1:b8:f3:b3:c7:17:05:74:b7:92:f9:c3:92:22:c3:
         e3:02:6d:90:84:02:c8:c4:87:5e:bd:19:d2:8e:fc:65:03:64:
         e5:ec:a1:12:4f:aa:3b:1f:61:a1:02:e0:9a:e5:e5:bb:b2:54:
         03:fc:18:66:6a:85:34:cd:25:92:ca:65:13:01:41:96:21:61:
         6e:c7:ac:53:e5:f9:0b:85:d1:f3:29:90:29:95:b5:bb:78:67:
         7e:38:73:57:29:0c:67:93:90:46:ba:9a:00:b1:20:71:5a:98:
         29:81:91:23:ec:c8:3e:11:7b:6b:c9:95:2d:10:0f:fe:67:b4:
         48:74:c3:33:82:e0:5a:ef:73:0d:cc:d9:ca:5f:21:dd:82:e5:
         b4:c5:28:9d:25:e0:27:a9:60:ce:dc:46:13:2f:22:59:dd:4d:
         ca:c7:65:0d:61:b1:7a:09:ff:e8:f9:ed:c2:0e:65:30:4e:e9:
         b4:29:3b:ca:da:74:00:64:36:9c:51:08:63:f5:62:d5:50:b4:
         83:db:a6:02:b3:f8:cc:47:57:20:b5:e9:65:64:9a:f0:2c:a5:
         09:e0:95:2a:ef:e9:c3:0c:96:42:62:1d:05:2c:f6:e4:77:64:
         b1:19:76:00:63:7d:e1:88:57:07:7d:89:e9:84:1c:0c:d1:c8:
         50:94:36:c4:7c:5d:df:8b:5d:5d:e1:01:d7:55:39:81:4b:af:
         fe:de:d6:7f:48:48:43:52:c9:ec:a4:a4:df:4a:ad:d7:76:9f:
         ea:ad:bb:d2:fa:62:25:e4:9e:9d:99:55:db:95:da:39:06:3d:
         3b:a9:33:19:bf:c6:3e:ce
-----BEGIN CERTIFICATE-----
MIIFujCCA6KgAwIBAgICAVkwDQYJKoZIhvcNAQELBQAwPjEYMBYGA1UEAwwPSW50
ZXJtZWRpYXRlLUNBMREwDwYDVQQKDAhQaXRlci5OTDEPMA0GA1UECwwGY3J5cHRv
MCAXDTIzMDMxOTE4MjMzNVoYDzIwNTAwODA0MTgyMzM1WjBMMRswGQYDVQQDDBJC
aWcgSHlwZXJDb3JwIEx0ZC4xFzAVBgNVBAoMDmh5cGVyY29ycC5jb21wMRQwEgYD
VQQLDAtBY3F1aXNpdGlvbjCCAiIwDQYJKoZIhvcNAQEBBQADggIPADCCAgoCggIB
ANyW4Btb17QhBhC9t6OGHI6BQGiXpLg5Z6MYB+iricBNxt5f+8KtIgt+QGBoLGuV
yY+SYWFbscp+enWgUyJfLiEs5jil7oQv+wUrSYZszO06HBtDqFNNFNgbdvd2Ktml
kphR9SEK5HeH6vtTOXSS7yjauxvaUmRFIZSdq7MgkQnchMHsI7RQWBEwJ4AMTGIV
sCqqanaNn8tbZXvBbUOF0KNnI7Q20pZLMmzpdih3YH5Hdo2BAH86D1Hk3pfS2QpQ
7S6PCjs7U0lH+CVh7QKAixnums2cD1AZjjrBV/bFOfaUOW+1JY4hZ9a9UwBzLYVD
H5ntzmqZVbHRJdwR+ZoxlreoDOUsZZGr9byDF11a7TacSfjOFXIRq+ZQqBd/Xbsm
qQOKXaNVSDyaZFH76DwYZmj4tJBn/7k1PdyUA3tuJW+rE8IkcbO4Fla/BG7BFBK3
FKopL3cEdmnoiz/dg7rnkDXOi3P427Q9GZGmeQuGFi/JAib3dJ+Iwu20uPUiQcaN
25y8rrguk8wdWQ6nO5TIOce9svSxhQULhrQVbAXUXygCbm2BWP2odftU7eaXgnOv
56TTfk36a3QL4M2psPNWXYN3XXkqEsXxCjAum03VO+UmowBVcje2dcdrLXNl78Nf
Ktr3aaMGeQTl2HMia+17EFRNo1JPWLuGLwtH9xVcXxKTAgMBAAGjgbEwga4wCwYD
VR0PBAQDAgeAMF8GA1UdEQRYMFaCGG15LnNlcnZlci5oeXBlcmNvcnAuY29tcIIZ
YWx0LXNlcnZlci5oeXBlcmNvcnAuY29tcIIJbG9jYWxob3N0gRRBZG1pbkBoeXBl
cmNvcnAuY29tcDAdBgNVHQ4EFgQUI05ViF9m8bBwM+pRUI+fRFPDAGUwHwYDVR0j
BBgwFoAUNmumL9aadHsP1YjwqzbT86ZvlfwwDQYJKoZIhvcNAQELBQADggIBAK4V
Westv9bY/Tkn5eYgm24otivKPvcGUZVx6eK3Ucjx2AW5pJFMJkqMdywwXRIT9bfs
mSfammACVlypaTghE3H7/L1/29kdsv7rHovSZ1sw52CmOA379Zff9lbD1BPZ9SV3
6OvlRpJ/eOfxp4A5lwfJ4LY5dw99/KypjsxoxlzJ8iCvQQNlfQ2XyU3FwwZ39BOB
v0cT49kRIrY360u4nOrIjNF62/cWjJ4XpSXuIE0za4xl39vXhvRJOUDntBwInfHx
O0ISrgK+18G487PHFwV0t5L5w5Iiw+MCbZCEAsjEh169GdKO/GUDZOXsoRJPqjsf
YaEC4Jrl5buyVAP8GGZqhTTNJZLKZRMBQZYhYW7HrFPl+QuF0fMpkCmVtbt4Z344
c1cpDGeTkEa6mgCxIHFamCmBkSPsyD4Re2vJlS0QD/5ntEh0wzOC4Frvcw3M2cpf
Id2C5bTFKJ0l4CepYM7cRhMvIlndTcrHZQ1hsXoJ/+j57cIOZTBO6bQpO8radABk
NpxRCGP1YtVQtIPbpgKz+MxHVyC16WVkmvAspQnglSrv6cMMlkJiHQUs9uR3ZLEZ
dgBjfeGIVwd9iemEHAzRyFCUNsR8Xd+LXV3hAddVOYFLr/7e1n9ISENSyeykpN9K
rdd2n+qtu9L6YiXknp2ZVduV2jkGPTupMxm/xj7O
-----END CERTIFICATE-----
