Certificate:
    Data:
        Version: 3 (0x2)
        Serial Number: 678 (0x2a6)
        Signature Algorithm: sha256WithRSAEncryption
        Issuer: CN = Intermediate-CA, O = Piter.NL, OU = crypto
        Validity
            Not Before: Mar 19 18:23:36 2023 GMT
            Not After : Aug  4 18:23:36 2050 GMT
        Subject: CN = Sum Customer, O = customer.comp, OU = Red Tape dep.
        Subject Public Key Info:
            Public Key Algorithm: rsaEncryption
                RSA Public-Key: (4096 bit)
                Modulus:
                    00:b6:0f:f0:16:27:f9:55:7b:99:bc:fc:af:a4:29:
                    4b:93:5e:9d:43:d7:68:50:a5:b2:6f:56:6e:c8:4b:
                    16:09:eb:ab:6b:fb:ec:ed:2d:2c:9a:9d:2b:ba:b0:
                    18:48:a4:02:96:00:53:24:37:ac:42:2e:27:86:b0:
                    4c:b8:17:63:fe:e7:85:73:58:3d:65:9b:a4:5e:d4:
                    0d:a5:de:cf:e5:6a:8d:03:0f:47:c5:07:81:b8:7b:
                    dc:68:6e:21:b9:a2:e4:42:a2:40:03:31:dd:f6:87:
                    43:ee:8c:73:12:62:00:e1:28:ec:e4:c9:48:71:55:
                    7f:76:d4:7d:24:00:21:ac:f4:25:36:3e:e0:30:51:
                    40:da:a6:36:f6:8c:7b:08:ad:17:36:73:71:7f:83:
                    c5:71:93:f2:29:c9:9d:2d:9b:db:ed:74:aa:ec:5b:
                    9d:01:63:87:b1:55:c7:2a:44:37:6d:06:e1:82:85:
                    72:bc:7d:ae:3a:c0:83:8b:11:37:fa:15:7e:4c:45:
                    e9:e5:68:b2:23:62:c5:ec:3b:aa:60:8c:bc:bd:a5:
                    ee:8b:a3:27:79:f1:c1:1f:7f:00:94:f7:14:45:b1:
                    5f:94:d2:73:ba:b9:1d:37:00:79:ec:10:b6:59:cb:
                    6f:e1:bb:83:83:f3:9f:56:d6:67:bf:c8:df:cb:db:
                    67:4a:93:08:0d:e1:af:e1:3d:77:e4:92:81:04:f4:
                    44:4b:46:bd:fe:94:39:84:de:0f:ba:00:11:d3:e7:
                    0f:9b:58:f6:99:41:b4:27:4d:c4:f9:f5:40:3a:49:
                    58:a7:b0:01:cd:9d:4c:0d:7f:8d:b4:25:10:db:ca:
                    dd:85:a9:10:6b:bf:a0:84:d7:88:73:48:d8:5a:4d:
                    78:f5:0c:28:05:b4:7c:e6:13:ac:96:88:7e:fd:56:
                    58:49:71:58:62:35:d6:61:11:92:81:e7:3d:2f:3b:
                    36:e3:a6:b1:8c:d7:1e:c3:d9:52:e6:7f:31:66:98:
                    4e:69:48:cb:b2:d4:65:bb:97:51:76:13:92:cf:5b:
                    40:24:b0:97:11:4b:f4:10:3f:c7:cf:ed:c7:59:12:
                    3b:9f:0f:d9:fc:2a:a5:9e:9b:05:a0:c6:9d:29:a7:
                    c9:5c:fd:b4:fe:71:ac:81:a7:06:97:63:84:6a:5b:
                    ea:8d:c3:97:43:df:61:82:e2:54:c5:cc:5e:c2:ca:
                    d3:94:b6:4e:26:c5:94:f8:77:f3:7e:f9:4e:ce:8c:
                    1b:07:e8:e8:07:8d:36:80:af:f1:7c:0a:b0:c7:08:
                    f1:2a:6b:51:b4:57:c2:93:29:32:f5:5e:1a:81:81:
                    fe:14:cf:bf:48:1b:a0:d3:78:0b:9a:06:22:8e:7f:
                    3f:e8:25
                Exponent: 65537 (0x10001)
        X509v3 extensions:
            X509v3 Key Usage: 
                Digital Signature
            X509v3 Subject Alternative Name: 
                DNS:client.customer.comp, DNS:alt-client.customer.comp, email:Client@Customer.comp
            X509v3 Subject Key Identifier: 
                F5:E5:A8:41:B0:C5:B5:3D:5A:89:49:8D:A1:D2:F3:6B:30:C9:91:12
            X509v3 Authority Key Identifier: 
                keyid:36:6B:A6:2F:D6:9A:74:7B:0F:D5:88:F0:AB:36:D3:F3:A6:6F:95:FC

    Signature Algorithm: sha256WithRSAEncryption
         5e:a2:89:98:37:b4:e5:1e:ba:ab:77:25:53:46:54:40:a8:a2:
         e4:4a:b8:a1:8d:70:57:b5:9d:e0:11:be:e6:d8:4a:b6:d6:7b:
         c5:44:d0:5e:52:86:4f:9e:85:95:c1:51:69:df:30:31:71:4e:
         50:e6:f0:4c:5a:b4:d7:9c:d1:d0:75:4f:ac:1e:f5:46:af:3a:
         f1:b6:69:14:51:20:ea:85:91:c3:0f:89:7b:0f:67:35:89:84:
         49:28:b4:bf:34:4c:6a:73:d0:c0:ec:9c:de:5e:2c:f7:7e:dc:
         77:f3:e8:fb:51:3b:b5:33:74:b7:0b:6e:0b:01:8a:15:b8:a4:
         38:ff:49:1c:9d:bc:47:6d:12:e5:c2:87:65:08:9a:2c:fe:82:
         ba:fb:29:b6:43:91:24:0b:51:c7:40:df:92:8e:e2:ab:d4:51:
         e8:9e:d1:e0:3e:aa:7f:d9:08:6b:7c:b8:75:b8:43:25:17:87:
         6b:28:0e:a1:d3:5d:f9:76:33:4a:52:fd:b2:7b:17:ad:98:09:
         d6:03:ca:7b:4e:24:83:85:d9:c6:c1:5d:cf:77:a5:ec:e6:95:
         a6:4c:17:a9:3d:f8:df:7b:07:47:cc:57:32:94:f9:4f:69:1b:
         3d:7e:27:fe:64:df:6f:d0:3b:9d:c8:90:34:69:49:a0:33:af:
         14:5f:29:04:7d:a5:f7:b7:8d:7e:10:e8:a7:62:cc:13:65:28:
         9f:02:ac:cf:8b:e1:5b:05:fb:05:21:ca:f1:6f:3d:e0:03:0a:
         13:dc:76:f0:98:8f:34:0f:51:1f:5b:6d:1e:f6:22:ae:6e:51:
         50:7e:38:70:df:f0:9b:e3:3c:c7:ed:68:bf:1c:8d:05:c2:6d:
         7d:e9:f0:37:f7:bf:49:b7:37:77:1d:83:6d:1d:50:37:12:6e:
         03:ec:db:bc:1f:42:aa:76:2e:ec:d5:47:c2:2a:b3:5c:a2:99:
         69:7f:c5:d1:21:f2:ed:66:4e:9a:1f:f5:58:3e:d1:eb:a3:6e:
         cf:b4:75:fc:35:1f:d7:2a:a0:0c:bb:e6:fe:59:ea:8d:9e:74:
         79:73:4a:65:3a:83:3e:aa:bb:16:fb:e7:4f:a8:52:d4:20:41:
         b1:39:fd:68:b0:cb:ef:54:14:d3:69:61:3a:99:7a:81:d7:da:
         a7:c7:e7:b8:2f:4e:e0:d6:c0:8a:a9:00:0e:59:04:71:a4:8c:
         b3:54:30:b5:3a:18:88:61:51:01:a9:1c:2c:3a:56:9a:77:ed:
         6f:2f:df:47:22:2c:29:b7:27:22:35:05:67:1a:e7:63:7a:7d:
         ef:7d:0f:74:c0:b6:51:03:99:a3:39:c7:ac:2c:f5:70:42:9f:
         5d:42:b8:2b:bc:d4:09:32
-----BEGIN CERTIFICATE-----
MIIFpTCCA42gAwIBAgICAqYwDQYJKoZIhvcNAQELBQAwPjEYMBYGA1UEAwwPSW50
ZXJtZWRpYXRlLUNBMREwDwYDVQQKDAhQaXRlci5OTDEPMA0GA1UECwwGY3J5cHRv
MCAXDTIzMDMxOTE4MjMzNloYDzIwNTAwODA0MTgyMzM2WjBHMRUwEwYDVQQDDAxT
dW0gQ3VzdG9tZXIxFjAUBgNVBAoMDWN1c3RvbWVyLmNvbXAxFjAUBgNVBAsMDVJl
ZCBUYXBlIGRlcC4wggIiMA0GCSqGSIb3DQEBAQUAA4ICDwAwggIKAoICAQC2D/AW
J/lVe5m8/K+kKUuTXp1D12hQpbJvVm7ISxYJ66tr++ztLSyanSu6sBhIpAKWAFMk
N6xCLieGsEy4F2P+54VzWD1lm6Re1A2l3s/lao0DD0fFB4G4e9xobiG5ouRCokAD
Md32h0PujHMSYgDhKOzkyUhxVX921H0kACGs9CU2PuAwUUDapjb2jHsIrRc2c3F/
g8Vxk/IpyZ0tm9vtdKrsW50BY4exVccqRDdtBuGChXK8fa46wIOLETf6FX5MRenl
aLIjYsXsO6pgjLy9pe6Loyd58cEffwCU9xRFsV+U0nO6uR03AHnsELZZy2/hu4OD
859W1me/yN/L22dKkwgN4a/hPXfkkoEE9ERLRr3+lDmE3g+6ABHT5w+bWPaZQbQn
TcT59UA6SVinsAHNnUwNf420JRDbyt2FqRBrv6CE14hzSNhaTXj1DCgFtHzmE6yW
iH79VlhJcVhiNdZhEZKB5z0vOzbjprGM1x7D2VLmfzFmmE5pSMuy1GW7l1F2E5LP
W0AksJcRS/QQP8fP7cdZEjufD9n8KqWemwWgxp0pp8lc/bT+cayBpwaXY4RqW+qN
w5dD32GC4lTFzF7CytOUtk4mxZT4d/N++U7OjBsH6OgHjTaAr/F8CrDHCPEqa1G0
V8KTKTL1XhqBgf4Uz79IG6DTeAuaBiKOfz/oJQIDAQABo4GhMIGeMAsGA1UdDwQE
AwIHgDBPBgNVHREESDBGghRjbGllbnQuY3VzdG9tZXIuY29tcIIYYWx0LWNsaWVu
dC5jdXN0b21lci5jb21wgRRDbGllbnRAQ3VzdG9tZXIuY29tcDAdBgNVHQ4EFgQU
9eWoQbDFtT1aiUmNodLzazDJkRIwHwYDVR0jBBgwFoAUNmumL9aadHsP1YjwqzbT
86ZvlfwwDQYJKoZIhvcNAQELBQADggIBAF6iiZg3tOUeuqt3JVNGVECoouRKuKGN
cFe1neARvubYSrbWe8VE0F5Shk+ehZXBUWnfMDFxTlDm8ExatNec0dB1T6we9Uav
OvG2aRRRIOqFkcMPiXsPZzWJhEkotL80TGpz0MDsnN5eLPd+3Hfz6PtRO7UzdLcL
bgsBihW4pDj/SRydvEdtEuXCh2UImiz+grr7KbZDkSQLUcdA35KO4qvUUeie0eA+
qn/ZCGt8uHW4QyUXh2soDqHTXfl2M0pS/bJ7F62YCdYDyntOJIOF2cbBXc93pezm
laZMF6k9+N97B0fMVzKU+U9pGz1+J/5k32/QO53IkDRpSaAzrxRfKQR9pfe3jX4Q
6KdizBNlKJ8CrM+L4VsF+wUhyvFvPeADChPcdvCYjzQPUR9bbR72Iq5uUVB+OHDf
8JvjPMftaL8cjQXCbX3p8Df3v0m3N3cdg20dUDcSbgPs27wfQqp2LuzVR8Iqs1yi
mWl/xdEh8u1mTpof9Vg+0eujbs+0dfw1H9cqoAy75v5Z6o2edHlzSmU6gz6quxb7
50+oUtQgQbE5/Wiwy+9UFNNpYTqZeoHX2qfH57gvTuDWwIqpAA5ZBHGkjLNUMLU6
GIhhUQGpHCw6Vpp37W8v30ciLCm3JyI1BWca52N6fe99D3TAtlEDmaM5x6ws9XBC
n11CuCu81Aky
-----END CERTIFICATE-----
