Certificate:
    Data:
        Version: 3 (0x2)
        Serial Number:
            55:43:75:a8:49:bf:88:74:2f:d6:a2:d9:a8:1f:5b:48:40:9f:35:b9
        Signature Algorithm: sha256WithRSAEncryption
        Issuer: CN = Root-CA, O = Piter.NL, OU = Crypto
        Validity
            Not Before: Mar 19 18:23:34 2023 GMT
            Not After : Aug  4 18:23:34 2050 GMT
        Subject: CN = Root-CA, O = Piter.NL, OU = Crypto
        Subject Public Key Info:
            Public Key Algorithm: rsaEncryption
                RSA Public-Key: (4096 bit)
                Modulus:
                    00:93:1e:ed:e1:1d:72:ed:39:0f:19:30:1a:5e:45:
                    2d:09:48:ce:1c:75:4c:c1:d6:d9:f2:b4:86:90:d1:
                    c5:a6:d8:4a:68:c1:13:e2:c1:75:8e:88:47:44:ee:
                    32:f2:7f:f6:87:c4:a1:c9:fc:ec:42:4c:fd:f6:4c:
                    6a:db:0b:76:6d:dc:a5:05:ee:cf:20:56:b2:04:8a:
                    b1:9f:7a:57:96:1c:1d:9b:36:98:17:c0:4c:b4:f5:
                    92:a8:57:7d:8d:92:b6:ac:82:fd:d6:b7:20:7a:a9:
                    75:f4:49:b5:6e:b6:98:05:15:97:a4:b0:63:b0:6b:
                    59:3a:21:7f:48:9e:20:d8:4b:27:e7:b6:06:6c:bc:
                    2f:19:68:a2:31:c0:62:ac:d5:6b:ee:55:47:3c:3c:
                    7b:e6:1d:e5:a1:1f:b9:8b:66:7d:cb:34:ce:b8:50:
                    15:3b:23:20:1f:70:20:55:c3:c2:52:b5:c8:50:56:
                    d5:30:31:80:e3:69:11:d7:75:a3:64:7a:88:f8:14:
                    c3:89:a8:e2:4d:13:8f:cb:ef:7c:6e:7e:9c:13:4e:
                    6d:a4:d0:f3:67:84:3f:f4:dd:ec:7f:72:e9:f5:3f:
                    a5:61:dd:10:06:85:1c:0a:64:84:01:62:8f:e5:36:
                    f9:3d:38:20:7b:0f:29:2c:bd:fb:04:91:90:14:4e:
                    df:a7:9b:66:56:ad:5a:fc:82:e8:9e:2f:34:ec:29:
                    aa:f4:71:3e:dc:25:f2:c6:09:e9:aa:54:04:a1:8b:
                    a8:b0:c2:92:29:bd:88:a7:de:23:49:86:7b:12:72:
                    ff:52:d9:4d:1f:9e:49:d6:4d:9c:dc:59:a7:41:77:
                    9b:66:f1:ac:5f:bc:15:0e:1b:25:ea:c8:a8:d0:69:
                    38:b5:9d:37:36:fa:45:04:ac:2f:10:7a:43:a2:12:
                    4e:67:91:1b:34:b5:29:52:ba:1a:d0:a1:ef:53:79:
                    3b:29:6b:78:6b:c8:0a:1a:5b:95:52:5a:51:5f:97:
                    11:68:2d:4b:2a:6d:7d:85:9a:e5:7f:27:b4:9b:a5:
                    df:92:07:0a:f2:10:5f:7a:f6:a9:ea:74:19:01:b8:
                    a5:ab:35:7d:e0:e2:9b:1c:e6:3e:1c:90:1e:25:65:
                    e0:1b:40:4c:98:54:11:8f:5c:a7:be:7b:65:a8:f2:
                    ea:ce:c7:75:f0:18:14:0d:36:b1:e8:5e:c5:56:c8:
                    95:52:99:9f:f8:7e:cc:af:a3:f2:e1:80:8f:2c:cc:
                    e3:18:57:bc:e1:1c:cf:37:fb:b1:e0:3f:a4:bb:b3:
                    af:1b:ad:28:e3:f1:0d:4f:91:8a:77:d9:99:c7:ef:
                    76:65:6d:6b:01:cc:d9:ce:56:57:cd:18:38:b9:de:
                    af:57:3b
                Exponent: 65537 (0x10001)
        X509v3 extensions:
            X509v3 Subject Key Identifier: 
                F0:D0:82:F3:16:DC:2B:19:1F:76:39:01:37:31:83:C8:0F:61:4E:F1
            X509v3 Authority Key Identifier: 
                keyid:F0:D0:82:F3:16:DC:2B:19:1F:76:39:01:37:31:83:C8:0F:61:4E:F1

            X509v3 Basic Constraints: critical
                CA:TRUE
    Signature Algorithm: sha256WithRSAEncryption
         10:1c:51:8d:04:d7:b9:2d:78:89:66:05:fc:26:46:a2:36:37:
         40:0a:c4:f6:62:1e:7c:0f:fb:bc:aa:0f:47:bd:e9:a2:4d:4a:
         32:f3:0b:57:47:7b:0b:f1:1f:f5:a1:9a:c7:67:30:71:77:b5:
         fd:cb:1c:5f:e3:58:65:d6:64:8c:d7:1d:de:c7:90:19:f4:a6:
         9b:74:c5:08:e9:be:57:b0:8c:7a:12:cd:1c:25:0d:17:ea:c9:
         5e:5b:78:ec:e7:a3:4b:7c:a1:f2:4b:ba:28:3d:ae:b9:7b:55:
         2e:42:5b:14:77:a6:c3:e2:e0:02:54:9e:4a:e9:6f:71:83:03:
         32:36:6e:2b:e2:af:a7:69:07:68:ab:ef:f4:89:bc:04:df:6e:
         19:7e:f9:00:71:f1:88:ba:4d:17:fb:9d:90:d7:bb:95:28:a3:
         04:83:c9:5f:ce:ec:7e:e1:02:1a:99:8a:b4:b0:8d:04:eb:6e:
         00:93:a2:3f:21:65:d7:c7:c8:b4:b2:2d:dc:ec:4e:6b:2a:f0:
         aa:73:f8:2f:fb:23:62:a3:ca:a1:96:7e:b0:f4:6e:58:31:c4:
         72:e8:6d:a3:f1:7d:ef:74:2d:35:31:ef:d8:04:57:2f:03:e3:
         18:c5:04:b8:c7:fb:ac:e6:02:91:86:d0:13:9e:d3:04:ca:3a:
         44:7e:27:7e:a5:c1:7f:9d:cb:a0:40:07:e5:d3:ee:2e:91:96:
         3c:50:1e:f1:0f:6e:51:43:3f:b8:d5:d3:ac:47:02:2b:d6:e0:
         3a:a8:2c:71:ac:f0:a1:c2:02:2a:ce:24:59:6f:26:21:42:75:
         9d:5e:74:c8:e4:37:fc:c6:e8:d0:9c:67:50:d3:e4:1a:96:62:
         e6:c2:ac:f0:98:b0:57:3c:96:9f:40:6e:6a:b1:63:91:19:cd:
         d8:53:57:3f:3f:10:54:29:6f:46:86:66:dd:f1:92:ca:32:56:
         72:3b:34:dc:43:6f:88:fa:74:c5:53:78:2d:2e:69:5b:60:3d:
         65:a5:2c:aa:00:b3:f9:82:cd:ff:5a:ef:6d:db:82:2a:5e:8f:
         9d:5c:3b:22:ce:bd:e6:c8:cd:02:6f:45:28:22:5b:3c:c8:66:
         e0:4f:2f:2a:d6:22:c3:00:a4:18:37:9c:b5:27:39:e9:a8:83:
         2b:cb:01:8a:ce:cb:f7:a1:da:58:8c:35:02:d0:d2:92:05:86:
         a0:fa:fa:bc:dd:7d:27:63:92:a3:0c:92:63:34:6d:38:00:8c:
         27:ba:f5:b0:fb:b9:7f:4e:05:a4:5c:89:1d:34:91:f5:36:b9:
         45:be:97:5c:fc:59:ab:75:18:1c:36:2d:82:7d:f0:b7:00:05:
         b0:fc:10:f4:af:38:e7:7a
-----BEGIN CERTIFICATE-----
MIIFTzCCAzegAwIBAgIUVUN1qEm/iHQv1qLZqB9bSECfNbkwDQYJKoZIhvcNAQEL
BQAwNjEQMA4GA1UEAwwHUm9vdC1DQTERMA8GA1UECgwIUGl0ZXIuTkwxDzANBgNV
BAsMBkNyeXB0bzAgFw0yMzAzMTkxODIzMzRaGA8yMDUwMDgwNDE4MjMzNFowNjEQ
MA4GA1UEAwwHUm9vdC1DQTERMA8GA1UECgwIUGl0ZXIuTkwxDzANBgNVBAsMBkNy
eXB0bzCCAiIwDQYJKoZIhvcNAQEBBQADggIPADCCAgoCggIBAJMe7eEdcu05Dxkw
Gl5FLQlIzhx1TMHW2fK0hpDRxabYSmjBE+LBdY6IR0TuMvJ/9ofEocn87EJM/fZM
atsLdm3cpQXuzyBWsgSKsZ96V5YcHZs2mBfATLT1kqhXfY2StqyC/da3IHqpdfRJ
tW62mAUVl6SwY7BrWTohf0ieINhLJ+e2Bmy8LxloojHAYqzVa+5VRzw8e+Yd5aEf
uYtmfcs0zrhQFTsjIB9wIFXDwlK1yFBW1TAxgONpEdd1o2R6iPgUw4mo4k0Tj8vv
fG5+nBNObaTQ82eEP/Td7H9y6fU/pWHdEAaFHApkhAFij+U2+T04IHsPKSy9+wSR
kBRO36ebZlatWvyC6J4vNOwpqvRxPtwl8sYJ6apUBKGLqLDCkim9iKfeI0mGexJy
/1LZTR+eSdZNnNxZp0F3m2bxrF+8FQ4bJerIqNBpOLWdNzb6RQSsLxB6Q6ISTmeR
GzS1KVK6GtCh71N5OylreGvIChpblVJaUV+XEWgtSyptfYWa5X8ntJul35IHCvIQ
X3r2qep0GQG4pas1feDimxzmPhyQHiVl4BtATJhUEY9cp757Zajy6s7HdfAYFA02
sehexVbIlVKZn/h+zK+j8uGAjyzM4xhXvOEczzf7seA/pLuzrxutKOPxDU+RinfZ
mcfvdmVtawHM2c5WV80YOLner1c7AgMBAAGjUzBRMB0GA1UdDgQWBBTw0ILzFtwr
GR92OQE3MYPID2FO8TAfBgNVHSMEGDAWgBTw0ILzFtwrGR92OQE3MYPID2FO8TAP
BgNVHRMBAf8EBTADAQH/MA0GCSqGSIb3DQEBCwUAA4ICAQAQHFGNBNe5LXiJZgX8
JkaiNjdACsT2Yh58D/u8qg9HvemiTUoy8wtXR3sL8R/1oZrHZzBxd7X9yxxf41hl
1mSM1x3ex5AZ9KabdMUI6b5XsIx6Es0cJQ0X6sleW3js56NLfKHyS7ooPa65e1Uu
QlsUd6bD4uACVJ5K6W9xgwMyNm4r4q+naQdoq+/0ibwE324ZfvkAcfGIuk0X+52Q
17uVKKMEg8lfzux+4QIamYq0sI0E624Ak6I/IWXXx8i0si3c7E5rKvCqc/gv+yNi
o8qhln6w9G5YMcRy6G2j8X3vdC01Me/YBFcvA+MYxQS4x/us5gKRhtATntMEyjpE
fid+pcF/ncugQAfl0+4ukZY8UB7xD25RQz+41dOsRwIr1uA6qCxxrPChwgIqziRZ
byYhQnWdXnTI5Df8xujQnGdQ0+QalmLmwqzwmLBXPJafQG5qsWORGc3YU1c/PxBU
KW9Ghmbd8ZLKMlZyOzTcQ2+I+nTFU3gtLmlbYD1lpSyqALP5gs3/Wu9t24IqXo+d
XDsizr3myM0Cb0UoIls8yGbgTy8q1iLDAKQYN5y1JznpqIMrywGKzsv3odpYjDUC
0NKSBYag+vq83X0nY5KjDJJjNG04AIwnuvWw+7l/TgWkXIkdNJH1NrlFvpdc/Fmr
dRgcNi2CffC3AAWw/BD0rzjneg==
-----END CERTIFICATE-----
