Certificate:
    Data:
        Version: 3 (0x2)
        Serial Number: 123 (0x7b)
        Signature Algorithm: sha256WithRSAEncryption
        Issuer: CN = Root-CA, O = Piter.NL, OU = Crypto
        Validity
            Not Before: Apr 13 13:13:02 2020 GMT
            Not After : Aug 30 13:13:02 2047 GMT
        Subject: CN = Intermediate-CA, O = Piter.NL, OU = crypto
        Subject Public Key Info:
            Public Key Algorithm: rsaEncryption
                RSA Public-Key: (4096 bit)
                Modulus:
                    00:bc:3f:c1:5c:47:8d:3e:f1:d7:c5:0c:7d:7d:79:
                    30:da:f2:47:95:a8:db:9a:c2:b2:a8:21:6f:5b:44:
                    83:9e:39:50:23:4f:d2:a6:f4:af:a6:cf:ed:62:81:
                    c4:40:38:c8:3f:5e:57:80:7b:0a:65:94:c3:dc:2f:
                    46:19:84:b1:b4:50:a9:f1:db:4d:8f:11:96:4d:6c:
                    a2:32:52:12:19:a4:83:95:f5:d3:a8:c2:34:69:e6:
                    83:79:59:7f:d8:76:d1:80:ba:c1:4e:1f:a0:2c:f6:
                    37:0c:28:0f:12:08:a1:be:34:e3:75:5e:07:b4:79:
                    fd:48:19:fb:f5:69:e8:bc:9e:d6:ee:85:fa:82:2a:
                    bf:4a:be:99:37:2a:53:63:98:bd:4f:c2:d8:66:d7:
                    b7:a5:be:82:81:82:c5:2f:99:10:24:40:cc:73:c6:
                    37:fd:58:5c:2a:b1:8b:0a:69:ef:2c:dd:ef:fc:b8:
                    46:6f:b0:1e:44:84:ad:9e:75:bc:cb:74:ee:ad:e7:
                    62:f4:e1:7f:0b:c6:ab:f3:62:9b:28:dc:d9:d1:d8:
                    d2:cc:c1:3f:ed:0e:bc:50:dd:3f:68:bb:67:04:39:
                    9d:25:8a:b6:8b:3c:23:3c:f0:9e:f0:c5:99:35:b5:
                    b7:41:3c:25:99:f1:7b:c3:d6:73:8e:84:92:f8:8f:
                    34:1b:1b:7f:aa:67:63:34:14:11:99:56:1f:d0:62:
                    47:08:44:24:71:7f:8e:03:70:91:a7:03:d5:6e:04:
                    a8:fa:90:92:6c:ee:11:42:39:a4:a6:1a:c1:de:ae:
                    42:27:40:2a:93:c4:65:29:e1:5f:08:a2:e1:ca:7a:
                    23:2d:78:4a:f9:8a:0b:1d:96:9e:a9:93:3c:bd:19:
                    37:ee:ec:2c:16:6a:e3:44:fb:ad:16:f2:ff:75:00:
                    03:c9:8f:4c:38:e4:e5:4a:b6:24:06:7d:2b:64:d0:
                    0c:77:9e:d6:25:a3:cf:5f:34:06:a7:55:8a:e4:2b:
                    56:11:d5:b9:cf:b7:47:ad:30:fc:b7:c6:63:47:98:
                    fb:3b:08:1c:79:e0:23:46:01:05:b2:7d:20:cc:a6:
                    15:33:fd:1b:60:e0:61:cd:4c:7f:63:b0:ef:6f:b8:
                    87:f6:de:4c:f2:73:f3:8e:8f:36:0e:4c:67:fa:ec:
                    c8:60:a6:28:fd:1c:3d:55:b3:9e:f9:cf:aa:18:da:
                    dc:d2:b5:06:cd:d2:4c:c9:be:09:82:ec:ba:6e:33:
                    79:68:2c:85:8d:ee:80:91:35:b4:ff:8d:9c:e1:45:
                    fe:3b:e6:20:bc:e5:22:43:27:ab:6e:3e:9b:35:f8:
                    14:26:40:88:b6:02:5b:b5:da:1b:71:42:34:6d:01:
                    62:f7:09
                Exponent: 65537 (0x10001)
        X509v3 extensions:
            X509v3 Key Usage: 
                Certificate Sign
            X509v3 Subject Key Identifier: 
                44:CE:70:E5:B3:69:B7:60:5D:63:9D:DE:E1:6A:7F:AD:96:81:D9:4B
            X509v3 Authority Key Identifier: 
                keyid:16:7F:78:B1:A3:D6:8F:97:64:68:02:33:BB:6D:EF:A4:63:A6:A4:35
                DirName:/CN=Root-CA/O=Piter.NL/OU=Crypto
                serial:36:78:5F:E8:A8:DC:65:C0:17:33:7F:80:62:35:A7:A0:15:EF:BF

            X509v3 Basic Constraints: critical
                CA:TRUE
    Signature Algorithm: sha256WithRSAEncryption
         6f:00:bf:ca:90:f9:1f:e6:5e:e5:b9:8b:58:bc:86:16:96:3e:
         42:aa:c2:d0:36:2e:fb:7f:a5:5f:d5:a7:c5:e2:12:bc:75:7b:
         4f:cf:26:0a:ec:fb:50:a6:e4:0b:ef:ab:f3:6e:f2:f1:06:6d:
         46:3f:4a:7f:86:dd:6b:55:de:89:87:76:c2:95:e6:5e:4d:05:
         39:ac:0a:83:b5:40:0e:c8:33:44:61:47:9b:f0:d0:f0:1a:13:
         f5:84:a6:17:2e:88:17:32:40:a7:9b:3d:fe:4c:ad:37:12:37:
         0a:03:3e:cd:c2:f2:86:58:5e:59:1d:33:a3:8c:33:98:00:21:
         8b:a8:e0:67:aa:f8:16:96:29:76:96:2a:0d:eb:f3:86:84:17:
         3d:53:b5:9c:18:e8:dc:b8:bb:cc:95:bd:e1:59:bb:7a:d9:b4:
         70:f4:83:a4:a2:ad:51:1e:69:c6:0b:51:16:20:10:e1:87:c2:
         87:44:74:1d:ce:f0:d2:e0:7c:04:cb:95:59:e4:a9:66:96:b3:
         8b:f8:06:30:ad:45:3a:16:14:b2:29:09:2d:9f:22:c8:18:cf:
         5e:0f:c0:6a:08:a5:da:f3:44:7f:3d:b9:65:2e:e9:8f:60:16:
         d6:10:76:83:ad:e3:c1:73:8d:62:c6:5b:8d:46:d7:93:cc:ce:
         f6:e8:23:b7:7a:b9:ad:3d:71:1b:68:5c:f7:97:bf:0a:ba:f6:
         1c:8d:80:2a:ee:fa:b9:07:d8:22:86:e4:71:a8:9e:e0:3f:fd:
         55:66:dd:e3:50:a2:1d:a7:c4:a1:0e:a2:1c:2b:53:5a:72:ea:
         c8:3f:5c:91:3b:61:da:98:6f:68:ea:38:6b:30:05:ce:04:b5:
         4f:9b:57:a0:1c:67:61:dc:ed:8b:7b:5c:db:62:6c:d0:b8:34:
         6a:ae:6f:63:77:08:bd:1f:6f:18:01:b6:d9:4b:a1:46:a0:e5:
         be:19:71:9a:d7:63:b4:f9:de:23:a6:5c:a7:3c:e5:3a:9f:6a:
         37:a4:5a:b7:6a:98:81:81:9c:78:bf:92:8a:38:61:49:be:c6:
         ee:3d:73:c6:8a:02:c2:b6:70:05:77:55:5b:46:19:30:fa:2d:
         41:ec:72:5b:dc:1d:e6:ce:c9:f7:5a:db:ce:04:a6:0a:e4:ab:
         b3:b0:18:a9:fb:47:6a:1e:c7:67:34:14:25:f4:cf:1f:d1:ec:
         2b:b2:a8:4c:6e:b9:21:80:0a:f3:d5:8a:5c:2d:c8:ae:0e:64:
         7f:58:53:75:c1:74:6f:e1:d9:94:f3:c6:88:33:d7:19:cd:2f:
         26:91:ce:59:1a:38:38:e4:35:59:66:89:d1:56:4e:04:d1:c1:
         3c:14:96:89:30:1b:e5:f6
-----BEGIN CERTIFICATE-----
MIIFojCCA4qgAwIBAgIBezANBgkqhkiG9w0BAQsFADA2MRAwDgYDVQQDDAdSb290
LUNBMREwDwYDVQQKDAhQaXRlci5OTDEPMA0GA1UECwwGQ3J5cHRvMB4XDTIwMDQx
MzEzMTMwMloXDTQ3MDgzMDEzMTMwMlowPjEYMBYGA1UEAwwPSW50ZXJtZWRpYXRl
LUNBMREwDwYDVQQKDAhQaXRlci5OTDEPMA0GA1UECwwGY3J5cHRvMIICIjANBgkq
hkiG9w0BAQEFAAOCAg8AMIICCgKCAgEAvD/BXEeNPvHXxQx9fXkw2vJHlajbmsKy
qCFvW0SDnjlQI0/SpvSvps/tYoHEQDjIP15XgHsKZZTD3C9GGYSxtFCp8dtNjxGW
TWyiMlISGaSDlfXTqMI0aeaDeVl/2HbRgLrBTh+gLPY3DCgPEgihvjTjdV4HtHn9
SBn79WnovJ7W7oX6giq/Sr6ZNypTY5i9T8LYZte3pb6CgYLFL5kQJEDMc8Y3/Vhc
KrGLCmnvLN3v/LhGb7AeRIStnnW8y3Turedi9OF/C8ar82KbKNzZ0djSzME/7Q68
UN0/aLtnBDmdJYq2izwjPPCe8MWZNbW3QTwlmfF7w9ZzjoSS+I80Gxt/qmdjNBQR
mVYf0GJHCEQkcX+OA3CRpwPVbgSo+pCSbO4RQjmkphrB3q5CJ0Aqk8RlKeFfCKLh
ynojLXhK+YoLHZaeqZM8vRk37uwsFmrjRPutFvL/dQADyY9MOOTlSrYkBn0rZNAM
d57WJaPPXzQGp1WK5CtWEdW5z7dHrTD8t8ZjR5j7OwgceeAjRgEFsn0gzKYVM/0b
YOBhzUx/Y7Dvb7iH9t5M8nPzjo82Dkxn+uzIYKYo/Rw9VbOe+c+qGNrc0rUGzdJM
yb4Jguy6bjN5aCyFje6AkTW0/42c4UX+O+YgvOUiQyerbj6bNfgUJkCItgJbtdob
cUI0bQFi9wkCAwEAAaOBsjCBrzALBgNVHQ8EBAMCAgQwHQYDVR0OBBYEFETOcOWz
abdgXWOd3uFqf62WgdlLMHAGA1UdIwRpMGeAFBZ/eLGj1o+XZGgCM7tt76RjpqQ1
oTqkODA2MRAwDgYDVQQDDAdSb290LUNBMREwDwYDVQQKDAhQaXRlci5OTDEPMA0G
A1UECwwGQ3J5cHRvghM2eF/oqNxlwBczf4BiNaegFe+/MA8GA1UdEwEB/wQFMAMB
Af8wDQYJKoZIhvcNAQELBQADggIBAG8Av8qQ+R/mXuW5i1i8hhaWPkKqwtA2Lvt/
pV/Vp8XiErx1e0/PJgrs+1Cm5Avvq/Nu8vEGbUY/Sn+G3WtV3omHdsKV5l5NBTms
CoO1QA7IM0RhR5vw0PAaE/WEphcuiBcyQKebPf5MrTcSNwoDPs3C8oZYXlkdM6OM
M5gAIYuo4Geq+BaWKXaWKg3r84aEFz1TtZwY6Ny4u8yVveFZu3rZtHD0g6SirVEe
acYLURYgEOGHwodEdB3O8NLgfATLlVnkqWaWs4v4BjCtRToWFLIpCS2fIsgYz14P
wGoIpdrzRH89uWUu6Y9gFtYQdoOt48FzjWLGW41G15PMzvboI7d6ua09cRtoXPeX
vwq69hyNgCru+rkH2CKG5HGonuA//VVm3eNQoh2nxKEOohwrU1py6sg/XJE7YdqY
b2jqOGswBc4EtU+bV6AcZ2Hc7Yt7XNtibNC4NGqub2N3CL0fbxgBttlLoUag5b4Z
cZrXY7T53iOmXKc85TqfajekWrdqmIGBnHi/koo4YUm+xu49c8aKAsK2cAV3VVtG
GTD6LUHsclvcHebOyfda284Epgrkq7OwGKn7R2oex2c0FCX0zx/R7CuyqExuuSGA
CvPVilwtyK4OZH9YU3XBdG/h2ZTzxogz1xnNLyaRzlkaODjkNVlmidFWTgTRwTwU
lokwG+X2
-----END CERTIFICATE-----
