Certificate:
    Data:
        Version: 3 (0x2)
        Serial Number: 123 (0x7b)
        Signature Algorithm: sha256WithRSAEncryption
        Issuer: CN = Root-CA, O = Piter.NL, OU = Crypto
        Validity
            Not Before: Mar 19 18:23:35 2023 GMT
            Not After : Aug  4 18:23:35 2050 GMT
        Subject: CN = Intermediate-CA, O = Piter.NL, OU = crypto
        Subject Public Key Info:
            Public Key Algorithm: rsaEncryption
                RSA Public-Key: (4096 bit)
                Modulus:
                    00:d9:31:05:64:a2:85:37:2d:41:20:9f:bb:5c:66:
                    67:85:00:87:8c:96:e8:3f:b6:b1:89:be:ad:4b:4b:
                    0b:f5:d2:b2:57:09:38:02:e3:fa:89:ef:6b:4d:e9:
                    c7:21:e5:41:03:d9:06:d5:87:21:21:c4:d3:d6:15:
                    e8:18:b9:d2:74:48:20:d8:6a:ab:9f:59:a2:80:e3:
                    cb:02:b5:6b:32:63:5f:53:94:3e:c6:de:de:4d:7b:
                    59:0a:b7:8c:49:fb:75:66:c1:c9:05:72:f1:43:f9:
                    d9:21:6d:96:79:e9:e9:be:30:dd:63:78:52:c5:b4:
                    bd:bb:c2:33:43:5d:5e:e2:3f:b4:82:67:69:40:eb:
                    8b:d0:80:e1:d3:62:ac:56:6c:c8:93:44:97:bc:c0:
                    47:8e:f3:44:ac:4c:b2:a2:b8:e8:ac:22:2f:b4:90:
                    81:cb:58:bc:ca:6a:e9:f3:b7:7f:3a:a9:82:b2:6d:
                    79:21:e7:44:2d:e4:d7:ee:46:7c:47:0f:21:8d:b4:
                    2c:ad:87:04:83:70:32:91:bf:ec:89:d0:ae:ee:36:
                    2f:f9:2d:b5:fa:09:23:78:65:d1:7e:bd:08:fb:39:
                    4b:58:1e:e2:f8:8b:b2:52:3f:aa:3c:49:29:93:b7:
                    53:99:fb:92:bf:88:70:12:c0:19:fc:93:d5:bd:a6:
                    33:94:cd:2f:9e:cc:ab:cc:77:4c:24:f8:f4:73:7c:
                    21:11:16:11:8b:66:b5:25:81:0c:83:1a:09:dd:34:
                    3b:4a:2b:73:35:b2:28:9c:c1:ad:a6:d9:29:33:ec:
                    15:1e:2a:01:91:1b:72:57:04:8a:80:dc:7d:98:a3:
                    8c:37:d9:ec:4e:63:d7:c1:9b:bb:0e:11:04:31:06:
                    00:5a:79:b2:74:02:82:d2:72:b1:2e:57:7f:a0:c2:
                    ba:e2:10:49:44:18:4c:b7:f4:15:98:de:34:d5:68:
                    55:97:a9:e9:97:71:66:eb:13:c8:dc:39:1f:99:b9:
                    92:3f:b6:a3:72:71:34:12:c3:14:13:08:d2:ba:32:
                    64:d4:39:f0:66:95:4d:f4:76:4c:49:e6:53:ff:61:
                    19:5e:41:47:c1:ac:d1:eb:d8:71:b0:ba:e9:08:50:
                    ee:18:ce:ca:16:08:14:ee:85:ec:89:7e:f5:bb:8d:
                    84:fa:a5:44:9e:f1:b7:2e:12:4f:ba:4d:e8:37:0a:
                    3e:99:10:b4:9f:46:5d:cf:7d:42:f2:55:37:4d:18:
                    46:ed:c0:7d:f5:8e:11:47:a4:21:69:64:dc:1e:24:
                    6e:7b:cf:f2:de:56:cd:2c:29:ed:8b:35:7c:08:f7:
                    c7:bd:64:0a:10:18:19:28:ae:c1:1e:c3:75:61:34:
                    12:d1:ad
                Exponent: 65537 (0x10001)
        X509v3 extensions:
            X509v3 Key Usage: 
                Certificate Sign
            X509v3 Subject Key Identifier: 
                36:6B:A6:2F:D6:9A:74:7B:0F:D5:88:F0:AB:36:D3:F3:A6:6F:95:FC
            X509v3 Authority Key Identifier: 
                keyid:F0:D0:82:F3:16:DC:2B:19:1F:76:39:01:37:31:83:C8:0F:61:4E:F1
                DirName:/CN=Root-CA/O=Piter.NL/OU=Crypto
                serial:55:43:75:A8:49:BF:88:74:2F:D6:A2:D9:A8:1F:5B:48:40:9F:35:B9

            X509v3 Basic Constraints: critical
                CA:TRUE
    Signature Algorithm: sha256WithRSAEncryption
         52:71:af:c8:ee:f0:1c:de:06:12:8c:ba:fe:78:04:dd:fe:8c:
         aa:c7:2e:34:bf:30:2a:1a:12:cf:6e:c8:48:23:3f:33:2c:2c:
         9d:8b:ab:d0:18:1a:af:b4:2c:1e:fc:15:3b:a2:e1:87:90:ad:
         29:ca:8a:8c:c5:4c:32:27:7b:ec:d1:af:96:b5:aa:3f:24:c5:
         5e:84:e7:0a:e1:89:c9:1a:1b:03:28:0d:e3:6b:44:d1:0a:5f:
         63:d0:7a:5a:37:6d:82:a3:b8:9c:82:0d:51:d8:c5:da:10:d1:
         83:96:50:7c:4a:54:39:54:38:af:dd:ab:7c:bc:56:55:86:a7:
         eb:73:ab:7e:58:35:e1:c1:6c:42:0f:95:eb:ef:fd:e8:42:b2:
         11:64:bb:17:80:47:76:99:6c:ab:7b:3c:54:6b:07:f1:18:42:
         da:d1:fa:1f:92:b3:8b:e8:a3:40:bc:0f:b0:be:ee:3e:b8:2e:
         fe:32:ac:10:dc:5b:37:dc:28:c7:de:6d:77:0e:22:c9:b9:8f:
         e4:0b:33:5b:1b:ce:17:e6:65:7f:c5:d5:9f:e7:74:93:44:09:
         19:3a:11:de:f9:03:b4:fd:19:b1:e8:30:a2:7c:44:9c:ab:22:
         04:0e:d1:53:b2:70:e3:58:36:7b:f7:39:cb:e8:ba:a3:b7:c1:
         c8:c1:50:46:e6:0f:3a:75:3b:a3:83:0f:99:e3:87:73:2d:35:
         e5:9b:c6:33:67:9d:4b:ab:1d:9b:36:e2:63:0f:c9:46:7f:71:
         f2:19:5a:dc:80:cf:02:0b:3c:13:da:7f:27:84:53:d8:a6:32:
         08:90:a4:d1:88:7a:fb:cd:84:56:4f:67:8a:28:b6:32:52:00:
         14:6e:b7:ee:87:0d:02:07:8b:04:7c:30:c2:16:e8:20:1a:14:
         ad:c1:97:f3:04:e9:43:5d:91:b8:9e:95:c5:19:2b:a9:5f:67:
         b4:2f:e6:15:ca:1e:25:ac:d1:3f:06:91:98:43:09:94:de:e3:
         35:c7:70:a2:88:2a:a8:9f:11:c8:a0:26:f4:91:ab:ef:6a:c8:
         d4:35:fc:42:9b:df:4d:6e:be:76:7f:96:ff:18:1a:8b:d0:e4:
         78:6d:ea:03:09:67:0b:7b:7b:20:85:f7:5b:8e:6e:56:3e:d4:
         ff:d7:71:08:ca:06:4d:8b:39:fc:e9:a4:69:d9:01:48:bc:66:
         bd:92:b8:8c:8e:fb:61:df:a9:9f:29:c9:53:fc:cb:d0:c3:89:
         be:ee:f8:0a:3f:42:9a:61:72:b8:b4:d3:2e:8e:ab:8a:b2:99:
         21:59:21:31:47:9d:3d:70:89:ff:eb:7e:99:03:95:b9:e5:c4:
         e0:03:b9:f6:56:bc:06:ff
-----BEGIN CERTIFICATE-----
MIIFpTCCA42gAwIBAgIBezANBgkqhkiG9w0BAQsFADA2MRAwDgYDVQQDDAdSb290
LUNBMREwDwYDVQQKDAhQaXRlci5OTDEPMA0GA1UECwwGQ3J5cHRvMCAXDTIzMDMx
OTE4MjMzNVoYDzIwNTAwODA0MTgyMzM1WjA+MRgwFgYDVQQDDA9JbnRlcm1lZGlh
dGUtQ0ExETAPBgNVBAoMCFBpdGVyLk5MMQ8wDQYDVQQLDAZjcnlwdG8wggIiMA0G
CSqGSIb3DQEBAQUAA4ICDwAwggIKAoICAQDZMQVkooU3LUEgn7tcZmeFAIeMlug/
trGJvq1LSwv10rJXCTgC4/qJ72tN6cch5UED2QbVhyEhxNPWFegYudJ0SCDYaquf
WaKA48sCtWsyY19TlD7G3t5Ne1kKt4xJ+3VmwckFcvFD+dkhbZZ56em+MN1jeFLF
tL27wjNDXV7iP7SCZ2lA64vQgOHTYqxWbMiTRJe8wEeO80SsTLKiuOisIi+0kIHL
WLzKaunzt386qYKybXkh50Qt5NfuRnxHDyGNtCythwSDcDKRv+yJ0K7uNi/5LbX6
CSN4ZdF+vQj7OUtYHuL4i7JSP6o8SSmTt1OZ+5K/iHASwBn8k9W9pjOUzS+ezKvM
d0wk+PRzfCERFhGLZrUlgQyDGgndNDtKK3M1siicwa2m2Skz7BUeKgGRG3JXBIqA
3H2Yo4w32exOY9fBm7sOEQQxBgBaebJ0AoLScrEuV3+gwrriEElEGEy39BWY3jTV
aFWXqemXcWbrE8jcOR+ZuZI/tqNycTQSwxQTCNK6MmTUOfBmlU30dkxJ5lP/YRle
QUfBrNHr2HGwuukIUO4YzsoWCBTuheyJfvW7jYT6pUSe8bcuEk+6Teg3Cj6ZELSf
Rl3PfULyVTdNGEbtwH31jhFHpCFpZNweJG57z/LeVs0sKe2LNXwI98e9ZAoQGBko
rsEew3VhNBLRrQIDAQABo4GzMIGwMAsGA1UdDwQEAwICBDAdBgNVHQ4EFgQUNmum
L9aadHsP1YjwqzbT86ZvlfwwcQYDVR0jBGowaIAU8NCC8xbcKxkfdjkBNzGDyA9h
TvGhOqQ4MDYxEDAOBgNVBAMMB1Jvb3QtQ0ExETAPBgNVBAoMCFBpdGVyLk5MMQ8w
DQYDVQQLDAZDcnlwdG+CFFVDdahJv4h0L9ai2agfW0hAnzW5MA8GA1UdEwEB/wQF
MAMBAf8wDQYJKoZIhvcNAQELBQADggIBAFJxr8ju8BzeBhKMuv54BN3+jKrHLjS/
MCoaEs9uyEgjPzMsLJ2Lq9AYGq+0LB78FTui4YeQrSnKiozFTDIne+zRr5a1qj8k
xV6E5wrhickaGwMoDeNrRNEKX2PQelo3bYKjuJyCDVHYxdoQ0YOWUHxKVDlUOK/d
q3y8VlWGp+tzq35YNeHBbEIPlevv/ehCshFkuxeAR3aZbKt7PFRrB/EYQtrR+h+S
s4voo0C8D7C+7j64Lv4yrBDcWzfcKMfebXcOIsm5j+QLM1sbzhfmZX/F1Z/ndJNE
CRk6Ed75A7T9GbHoMKJ8RJyrIgQO0VOycONYNnv3OcvouqO3wcjBUEbmDzp1O6OD
D5njh3MtNeWbxjNnnUurHZs24mMPyUZ/cfIZWtyAzwILPBPafyeEU9imMgiQpNGI
evvNhFZPZ4ootjJSABRut+6HDQIHiwR8MMIW6CAaFK3Bl/ME6UNdkbielcUZK6lf
Z7Qv5hXKHiWs0T8GkZhDCZTe4zXHcKKIKqifEcigJvSRq+9qyNQ1/EKb301uvnZ/
lv8YGovQ5Hht6gMJZwt7eyCF91uOblY+1P/XcQjKBk2LOfzppGnZAUi8Zr2SuIyO
+2HfqZ8pyVP8y9DDib7u+Ao/Qpphcri00y6Oq4qymSFZITFHnT1wif/rfpkDlbnl
xOADufZWvAb/
-----END CERTIFICATE-----
