Certificate:
    Data:
        Version: 3 (0x2)
        Serial Number:
            36:78:5f:e8:a8:dc:65:c0:17:33:7f:80:62:35:a7:a0:15:ef:bf
        Signature Algorithm: sha256WithRSAEncryption
        Issuer: CN = Root-CA, O = Piter.NL, OU = Crypto
        Validity
            Not Before: Apr 13 13:13:01 2020 GMT
            Not After : Aug 30 13:13:01 2047 GMT
        Subject: CN = Root-CA, O = Piter.NL, OU = Crypto
        Subject Public Key Info:
            Public Key Algorithm: rsaEncryption
                RSA Public-Key: (4096 bit)
                Modulus:
                    00:be:1c:71:48:e4:fe:20:d1:dd:95:8d:e5:f4:45:
                    22:e2:e0:d3:96:ec:0f:7f:16:96:3b:fe:b9:31:ea:
                    47:43:fa:d7:11:85:1b:97:58:51:f9:10:63:1b:3b:
                    e3:3d:f0:61:d7:2a:89:2b:da:6b:02:41:e9:e2:14:
                    d3:4d:fb:45:9a:8a:a7:51:ac:33:d1:d6:e7:dd:97:
                    e3:a2:11:02:d1:05:97:34:43:dc:00:ab:66:4e:44:
                    52:05:9b:87:58:4a:5e:d0:0f:f8:e1:5e:25:96:ec:
                    d8:ed:49:e4:5e:f4:d1:fd:05:d4:50:c0:88:6d:e0:
                    a2:fd:ab:2b:43:29:43:30:e7:f0:2a:c3:bd:59:63:
                    6c:cc:a4:58:a8:ac:e9:bf:10:ea:07:7f:78:67:3a:
                    06:da:6e:42:37:6b:04:a3:2b:5e:88:2e:2c:f7:57:
                    44:56:70:13:7c:3f:5a:0c:8c:fe:7c:5f:11:f6:71:
                    d5:b3:cf:1f:22:12:56:05:e7:77:1c:99:57:92:13:
                    77:d3:2f:c7:a1:06:36:e5:ac:dc:2b:4d:83:b1:2c:
                    74:ff:97:ee:d5:1e:a4:e0:10:46:a3:c0:7a:e7:38:
                    9f:67:fc:22:1b:07:ff:ef:e9:e9:1a:9d:22:42:d2:
                    26:2a:d9:a4:2f:50:e3:20:cd:25:0b:d0:30:fb:06:
                    5e:56:a9:96:68:3d:2f:c8:a0:8e:dc:32:61:f3:24:
                    66:58:ca:ce:47:b3:35:91:37:c0:7a:ec:bb:bb:e8:
                    16:0b:c1:02:bc:65:18:cd:d7:ca:74:4d:e8:0f:07:
                    a5:7e:78:d5:f9:43:f7:9b:d6:34:f6:4b:28:45:a3:
                    f2:6a:2a:d5:03:a0:ed:9d:16:78:01:27:fa:ae:aa:
                    35:82:8f:9f:bd:87:cd:7e:c0:0a:81:fa:30:10:c2:
                    26:48:18:30:d6:52:0e:44:34:a7:35:6e:e7:a2:e4:
                    84:ee:36:10:69:a2:56:44:15:d3:50:6a:ea:cb:d0:
                    e5:c8:7c:71:78:d5:c5:ba:94:51:8d:ee:50:1e:03:
                    66:0a:4d:04:45:1a:1d:e9:10:c1:b6:f5:79:ac:f7:
                    ee:be:53:97:f4:31:55:12:d6:a1:65:a7:3a:2c:f9:
                    e7:b7:c6:22:f5:5a:1f:82:6a:95:4f:0e:d5:8f:ef:
                    42:e9:6b:19:2c:bd:7d:12:91:5d:57:25:53:c9:af:
                    16:38:e4:98:3f:e2:51:ed:bf:a7:29:e4:8e:66:c3:
                    15:e0:81:5b:27:e5:c4:4c:06:df:3b:22:74:34:73:
                    52:6e:c3:a5:1e:55:50:27:73:fe:bb:03:ed:cb:85:
                    42:3b:63:9f:35:6a:ae:4b:c5:55:c5:48:4c:76:45:
                    50:81:ff
                Exponent: 65537 (0x10001)
        X509v3 extensions:
            X509v3 Subject Key Identifier: 
                16:7F:78:B1:A3:D6:8F:97:64:68:02:33:BB:6D:EF:A4:63:A6:A4:35
            X509v3 Authority Key Identifier: 
                keyid:16:7F:78:B1:A3:D6:8F:97:64:68:02:33:BB:6D:EF:A4:63:A6:A4:35

            X509v3 Basic Constraints: critical
                CA:TRUE
    Signature Algorithm: sha256WithRSAEncryption
         97:e4:1e:1b:f8:a8:be:db:41:37:48:47:5b:cf:93:5d:14:c1:
         cd:65:3b:e6:be:3b:71:e7:1f:9a:8c:f5:7a:0d:65:59:a4:db:
         8c:96:4a:d1:a3:18:0f:e5:c7:8c:36:24:80:ef:75:05:cc:0b:
         5f:5a:b3:fd:e9:4f:41:d4:9a:35:ad:54:c6:23:bd:72:cc:3c:
         26:5e:f7:eb:ee:f4:24:16:b3:26:c9:9d:f3:b8:f1:94:9c:e0:
         92:4a:36:62:3c:cd:f6:75:1d:8e:4f:6f:63:3f:b7:ed:00:c5:
         42:f7:4f:7c:d4:63:be:88:46:c1:d9:2d:8f:82:fd:d0:ce:cc:
         0d:ee:fe:c5:f7:9d:8f:8f:50:11:70:df:59:0c:5f:c5:bd:be:
         d4:d5:a8:65:88:73:9c:4c:d7:08:2a:8c:3d:38:14:ca:f3:7d:
         b2:98:a7:d8:cb:d6:51:48:9d:c6:73:99:5b:d1:5c:b0:ca:ce:
         c9:88:ea:bd:33:ca:21:8f:49:48:28:36:07:29:33:1e:d7:d7:
         d4:7c:c3:38:35:85:17:cf:fc:28:f1:e3:33:37:20:cc:63:69:
         49:36:54:e1:96:f1:8f:07:59:ca:b4:15:e1:bd:5d:f5:42:96:
         82:15:92:fb:69:1b:87:b2:e5:43:c2:3e:f5:92:43:07:9c:8c:
         61:ce:2c:e1:76:32:75:e1:79:bc:99:05:97:7b:80:9d:29:17:
         a3:25:db:a2:49:49:cf:1a:f5:4f:68:22:85:5d:da:d0:43:45:
         89:23:95:9d:62:d2:1e:eb:f3:29:b4:49:e4:e9:46:fd:b1:1f:
         1c:71:e4:83:90:97:7e:99:23:20:23:46:24:fb:30:1b:ce:d4:
         55:5b:26:c4:9f:7b:83:fe:59:55:01:57:7b:68:e8:91:ae:89:
         44:e3:ce:6e:d7:ac:94:d8:76:37:c5:a9:99:b4:99:2c:d0:52:
         ed:75:0a:76:d2:c2:c3:e1:69:fb:de:b8:52:85:a0:ef:0d:0b:
         6b:5f:98:3a:3a:64:d4:07:15:28:ea:23:12:86:80:14:01:b3:
         b0:93:61:ec:2a:23:dd:da:54:2f:ec:0e:c2:2f:4f:d8:4f:a7:
         26:5b:90:20:05:ca:a3:46:6a:fd:b0:0a:af:3a:db:ee:c0:81:
         ca:28:6c:2e:16:0d:de:a7:53:7e:12:4e:9e:3f:74:8b:1d:b1:
         22:bc:b8:ba:4e:cd:36:cd:dd:e6:c3:8d:2c:6b:49:af:41:de:
         31:60:7c:85:f0:a7:a4:61:cb:29:5c:d7:13:43:31:6a:57:e6:
         8f:33:33:b8:74:f7:32:84:36:10:c4:99:e4:29:a2:ef:7e:9a:
         f9:a8:e8:cc:63:d3:45:71
-----BEGIN CERTIFICATE-----
MIIFTDCCAzSgAwIBAgITNnhf6KjcZcAXM3+AYjWnoBXvvzANBgkqhkiG9w0BAQsF
ADA2MRAwDgYDVQQDDAdSb290LUNBMREwDwYDVQQKDAhQaXRlci5OTDEPMA0GA1UE
CwwGQ3J5cHRvMB4XDTIwMDQxMzEzMTMwMVoXDTQ3MDgzMDEzMTMwMVowNjEQMA4G
A1UEAwwHUm9vdC1DQTERMA8GA1UECgwIUGl0ZXIuTkwxDzANBgNVBAsMBkNyeXB0
bzCCAiIwDQYJKoZIhvcNAQEBBQADggIPADCCAgoCggIBAL4ccUjk/iDR3ZWN5fRF
IuLg05bsD38Wljv+uTHqR0P61xGFG5dYUfkQYxs74z3wYdcqiSvaawJB6eIU0037
RZqKp1GsM9HW592X46IRAtEFlzRD3ACrZk5EUgWbh1hKXtAP+OFeJZbs2O1J5F70
0f0F1FDAiG3gov2rK0MpQzDn8CrDvVljbMykWKis6b8Q6gd/eGc6BtpuQjdrBKMr
XoguLPdXRFZwE3w/WgyM/nxfEfZx1bPPHyISVgXndxyZV5ITd9Mvx6EGNuWs3CtN
g7EsdP+X7tUepOAQRqPAeuc4n2f8IhsH/+/p6RqdIkLSJirZpC9Q4yDNJQvQMPsG
Xlaplmg9L8igjtwyYfMkZljKzkezNZE3wHrsu7voFgvBArxlGM3XynRN6A8HpX54
1flD95vWNPZLKEWj8moq1QOg7Z0WeAEn+q6qNYKPn72HzX7ACoH6MBDCJkgYMNZS
DkQ0pzVu56LkhO42EGmiVkQV01Bq6svQ5ch8cXjVxbqUUY3uUB4DZgpNBEUaHekQ
wbb1eaz37r5Tl/QxVRLWoWWnOiz557fGIvVaH4JqlU8O1Y/vQulrGSy9fRKRXVcl
U8mvFjjkmD/iUe2/pynkjmbDFeCBWyflxEwG3zsidDRzUm7DpR5VUCdz/rsD7cuF
QjtjnzVqrkvFVcVITHZFUIH/AgMBAAGjUzBRMB0GA1UdDgQWBBQWf3ixo9aPl2Ro
AjO7be+kY6akNTAfBgNVHSMEGDAWgBQWf3ixo9aPl2RoAjO7be+kY6akNTAPBgNV
HRMBAf8EBTADAQH/MA0GCSqGSIb3DQEBCwUAA4ICAQCX5B4b+Ki+20E3SEdbz5Nd
FMHNZTvmvjtx5x+ajPV6DWVZpNuMlkrRoxgP5ceMNiSA73UFzAtfWrP96U9B1Jo1
rVTGI71yzDwmXvfr7vQkFrMmyZ3zuPGUnOCSSjZiPM32dR2OT29jP7ftAMVC9098
1GO+iEbB2S2Pgv3QzswN7v7F952Pj1ARcN9ZDF/Fvb7U1ahliHOcTNcIKow9OBTK
832ymKfYy9ZRSJ3Gc5lb0Vywys7JiOq9M8ohj0lIKDYHKTMe19fUfMM4NYUXz/wo
8eMzNyDMY2lJNlThlvGPB1nKtBXhvV31QpaCFZL7aRuHsuVDwj71kkMHnIxhzizh
djJ14Xm8mQWXe4CdKRejJduiSUnPGvVPaCKFXdrQQ0WJI5WdYtIe6/MptEnk6Ub9
sR8cceSDkJd+mSMgI0Yk+zAbztRVWybEn3uD/llVAVd7aOiRrolE485u16yU2HY3
xamZtJks0FLtdQp20sLD4Wn73rhShaDvDQtrX5g6OmTUBxUo6iMShoAUAbOwk2Hs
KiPd2lQv7A7CL0/YT6cmW5AgBcqjRmr9sAqvOtvuwIHKKGwuFg3ep1N+Ek6eP3SL
HbEivLi6Ts02zd3mw40sa0mvQd4xYHyF8KekYcspXNcTQzFqV+aPMzO4dPcyhDYQ
xJnkKaLvfpr5qOjMY9NFcQ==
-----END CERTIFICATE-----
