Certificate:
    Data:
        Version: 3 (0x2)
        Serial Number: 678 (0x2a6)
        Signature Algorithm: sha256WithRSAEncryption
        Issuer: CN = Intermediate-CA, O = Piter.NL, OU = crypto
        Validity
            Not Before: Apr 13 13:13:04 2020 GMT
            Not After : Aug 30 13:13:04 2047 GMT
        Subject: CN = Sum Customer, O = customer.comp, OU = Red Tape dep.
        Subject Public Key Info:
            Public Key Algorithm: rsaEncryption
                RSA Public-Key: (4096 bit)
                Modulus:
                    00:93:af:ef:cf:dd:f1:64:25:30:1b:d5:9c:05:80:
                    89:f8:40:0a:ce:26:06:bd:1e:f7:1e:84:f0:bf:41:
                    96:11:96:1b:f1:c5:ff:d1:7d:a3:f0:a4:0f:43:f5:
                    82:cd:b0:71:b5:92:64:e9:61:0e:b4:96:f7:c8:82:
                    2e:8c:77:74:58:63:20:25:51:7d:02:b3:e6:8c:30:
                    a4:fb:74:49:ca:db:97:53:64:42:cb:06:c7:4d:f4:
                    cf:a7:31:0e:22:af:db:0e:1f:cc:00:c8:59:41:38:
                    3b:5f:5f:96:44:48:64:20:6e:d1:c7:1e:cd:b1:16:
                    cd:68:f8:bf:07:f4:87:ec:1a:b6:00:0c:44:df:8d:
                    2b:f7:37:76:cc:26:60:a8:4d:e6:13:a9:a7:28:1b:
                    ee:b9:97:fa:83:ee:14:70:06:6d:7c:ff:ec:83:5e:
                    7c:1c:92:24:f4:7b:51:60:f8:00:73:ca:ec:ae:5a:
                    87:b4:fc:7a:a2:f1:cf:62:e2:6f:cc:0c:76:88:5b:
                    77:4c:da:3a:6e:0d:bb:67:31:d6:a4:cc:2c:1d:af:
                    de:fc:a7:ef:db:9f:2f:67:53:00:20:18:f3:f2:49:
                    c7:87:a9:86:34:5c:fc:1e:f1:43:1d:97:11:89:d8:
                    39:3d:25:dd:36:7d:0a:d3:6c:2d:05:0c:b4:d5:4c:
                    8e:b4:39:42:1c:0c:c3:54:91:30:0b:71:9d:f4:b5:
                    da:d5:e1:3c:f5:ea:7a:a0:1f:d0:47:3d:3d:21:04:
                    09:46:a5:fc:5d:ec:ac:6b:14:91:f0:8e:14:7a:18:
                    fc:1c:a0:23:01:9f:1b:24:63:b6:a6:4d:17:41:b2:
                    3d:df:a6:c9:5f:6c:34:c7:87:8a:4d:be:cd:e1:a6:
                    57:ba:e3:82:07:8a:8d:0e:6c:f1:66:37:9c:08:d6:
                    7a:10:9e:16:d7:de:a2:1a:d1:70:4d:11:a8:72:46:
                    07:c1:07:19:80:8a:3b:9b:7e:f4:ff:1d:56:a6:bd:
                    86:da:7f:f3:5b:ba:82:72:dd:52:82:5c:03:95:1b:
                    96:a8:5f:f4:0e:46:65:a9:ed:53:74:ba:dc:84:f0:
                    e4:a3:65:66:11:19:0c:90:3f:2c:96:b6:50:73:96:
                    c2:b5:ce:ad:e2:68:4c:a8:d0:20:12:74:32:8b:45:
                    6e:09:8e:be:3d:2b:43:67:a5:57:41:01:b4:c0:c9:
                    ff:11:57:ad:51:18:3f:8e:c6:2a:5d:fb:31:9d:f9:
                    41:fd:f4:75:c8:80:3f:e2:18:1c:2a:06:73:97:8f:
                    53:30:c7:b8:23:5c:0d:27:4f:87:6d:8a:98:08:a2:
                    8b:6c:01:d9:8f:fd:4e:26:c0:1c:fd:29:8f:ed:f4:
                    8c:6d:3b
                Exponent: 65537 (0x10001)
        X509v3 extensions:
            X509v3 Key Usage: 
                Digital Signature
            X509v3 Subject Alternative Name: 
                DNS:client.customer.comp, DNS:alt-client.customer.comp, email:Client@Customer.comp
            X509v3 Subject Key Identifier: 
                44:73:27:F2:A0:13:65:87:2E:93:5F:7C:B7:90:92:66:2D:23:00:12
            X509v3 Authority Key Identifier: 
                keyid:44:CE:70:E5:B3:69:B7:60:5D:63:9D:DE:E1:6A:7F:AD:96:81:D9:4B

    Signature Algorithm: sha256WithRSAEncryption
         46:25:9a:98:4e:58:7a:b2:b6:ab:43:89:48:be:73:0f:03:50:
         1d:d2:40:95:e4:53:93:7a:2c:ff:7b:fb:48:9c:64:16:58:9d:
         41:a1:5f:be:4d:d2:ec:67:35:64:5a:a3:99:18:dc:a2:d9:a2:
         8a:6a:26:3d:01:88:fd:a6:36:4a:12:16:43:d3:33:4e:e4:a8:
         ee:e8:bb:39:e9:1a:8d:d5:1b:90:ce:5e:3b:f6:1c:43:1b:2c:
         29:61:37:bd:ee:40:e5:56:27:97:11:f7:fc:13:62:68:de:4c:
         6c:fd:cb:ea:4f:77:68:b5:f3:71:ae:c1:5b:4b:1f:78:41:74:
         c8:28:5f:91:88:5f:c4:07:e7:06:3c:ab:31:67:6a:dd:3c:24:
         88:43:72:d2:3d:9a:d0:1c:b6:7e:dd:85:81:e1:7a:d6:dd:0a:
         72:36:54:1a:c7:fc:b7:15:62:da:f8:6e:19:c1:e2:02:dc:fc:
         cb:aa:e9:62:48:a5:10:01:11:7a:43:0d:b2:4b:56:22:b5:ac:
         78:c9:79:bf:b7:b6:63:9b:19:df:0c:03:0c:f5:13:fd:8c:87:
         26:da:37:2d:23:8b:20:40:4a:93:1f:d9:60:60:f5:9a:63:72:
         15:f8:a6:75:86:61:0c:a1:ca:32:a9:28:05:08:43:2a:f4:0c:
         24:94:f5:64:db:10:21:5b:1f:c6:71:fb:93:6f:04:60:5a:70:
         66:ca:4c:32:f9:35:41:7e:11:c3:02:db:7c:a8:36:b4:1a:7f:
         25:06:db:34:7c:e9:44:2c:ef:77:43:22:b7:97:c4:d4:9e:da:
         44:b0:1f:ff:6e:3e:84:da:7b:ad:a8:76:13:a4:40:55:55:d0:
         07:15:ee:b1:36:f0:58:5c:0d:62:72:f1:fd:e6:16:fa:7d:b1:
         ea:7e:c1:77:62:93:ad:16:dd:1b:56:97:0f:a8:68:cc:38:3b:
         8b:f0:74:2f:16:ea:7e:e0:93:51:dc:5c:00:fe:a9:a2:c2:38:
         65:b3:d5:05:ac:d8:a1:bd:ed:44:e5:cf:d2:89:ca:e0:96:d5:
         c7:02:ab:47:a4:a1:3b:69:76:17:fd:60:d1:48:bb:9b:53:0a:
         46:34:3e:51:0a:fa:1b:35:a8:e4:47:c9:ee:8a:ab:b7:66:e7:
         0b:bd:54:5e:2b:eb:72:86:26:d0:d8:2f:b4:db:3e:ad:95:0c:
         14:de:a5:0f:a1:cb:5f:ba:4f:a2:e2:62:49:99:dc:fe:6c:97:
         11:5a:75:0d:79:87:e2:24:b4:20:a6:79:34:e0:24:c7:dc:91:
         4f:ee:9e:46:c9:27:16:76:2c:05:af:ad:85:6b:82:29:fc:44:
         50:63:22:32:03:17:ae:b9
-----BEGIN CERTIFICATE-----
MIIFozCCA4ugAwIBAgICAqYwDQYJKoZIhvcNAQELBQAwPjEYMBYGA1UEAwwPSW50
ZXJtZWRpYXRlLUNBMREwDwYDVQQKDAhQaXRlci5OTDEPMA0GA1UECwwGY3J5cHRv
MB4XDTIwMDQxMzEzMTMwNFoXDTQ3MDgzMDEzMTMwNFowRzEVMBMGA1UEAwwMU3Vt
IEN1c3RvbWVyMRYwFAYDVQQKDA1jdXN0b21lci5jb21wMRYwFAYDVQQLDA1SZWQg
VGFwZSBkZXAuMIICIjANBgkqhkiG9w0BAQEFAAOCAg8AMIICCgKCAgEAk6/vz93x
ZCUwG9WcBYCJ+EAKziYGvR73HoTwv0GWEZYb8cX/0X2j8KQPQ/WCzbBxtZJk6WEO
tJb3yIIujHd0WGMgJVF9ArPmjDCk+3RJytuXU2RCywbHTfTPpzEOIq/bDh/MAMhZ
QTg7X1+WREhkIG7Rxx7NsRbNaPi/B/SH7Bq2AAxE340r9zd2zCZgqE3mE6mnKBvu
uZf6g+4UcAZtfP/sg158HJIk9HtRYPgAc8rsrlqHtPx6ovHPYuJvzAx2iFt3TNo6
bg27ZzHWpMwsHa/e/Kfv258vZ1MAIBjz8knHh6mGNFz8HvFDHZcRidg5PSXdNn0K
02wtBQy01UyOtDlCHAzDVJEwC3Gd9LXa1eE89ep6oB/QRz09IQQJRqX8XeysaxSR
8I4Uehj8HKAjAZ8bJGO2pk0XQbI936bJX2w0x4eKTb7N4aZXuuOCB4qNDmzxZjec
CNZ6EJ4W196iGtFwTRGockYHwQcZgIo7m370/x1Wpr2G2n/zW7qCct1SglwDlRuW
qF/0DkZlqe1TdLrchPDko2VmERkMkD8slrZQc5bCtc6t4mhMqNAgEnQyi0VuCY6+
PStDZ6VXQQG0wMn/EVetURg/jsYqXfsxnflB/fR1yIA/4hgcKgZzl49TMMe4I1wN
J0+HbYqYCKKLbAHZj/1OJsAc/SmP7fSMbTsCAwEAAaOBoTCBnjALBgNVHQ8EBAMC
B4AwTwYDVR0RBEgwRoIUY2xpZW50LmN1c3RvbWVyLmNvbXCCGGFsdC1jbGllbnQu
Y3VzdG9tZXIuY29tcIEUQ2xpZW50QEN1c3RvbWVyLmNvbXAwHQYDVR0OBBYEFERz
J/KgE2WHLpNffLeQkmYtIwASMB8GA1UdIwQYMBaAFETOcOWzabdgXWOd3uFqf62W
gdlLMA0GCSqGSIb3DQEBCwUAA4ICAQBGJZqYTlh6srarQ4lIvnMPA1Ad0kCV5FOT
eiz/e/tInGQWWJ1BoV++TdLsZzVkWqOZGNyi2aKKaiY9AYj9pjZKEhZD0zNO5Kju
6Ls56RqN1RuQzl479hxDGywpYTe97kDlVieXEff8E2Jo3kxs/cvqT3dotfNxrsFb
Sx94QXTIKF+RiF/EB+cGPKsxZ2rdPCSIQ3LSPZrQHLZ+3YWB4XrW3QpyNlQax/y3
FWLa+G4ZweIC3PzLquliSKUQARF6Qw2yS1Yitax4yXm/t7ZjmxnfDAMM9RP9jIcm
2jctI4sgQEqTH9lgYPWaY3IV+KZ1hmEMocoyqSgFCEMq9AwklPVk2xAhWx/GcfuT
bwRgWnBmykwy+TVBfhHDAtt8qDa0Gn8lBts0fOlELO93QyK3l8TUntpEsB//bj6E
2nutqHYTpEBVVdAHFe6xNvBYXA1icvH95hb6fbHqfsF3YpOtFt0bVpcPqGjMODuL
8HQvFup+4JNR3FwA/qmiwjhls9UFrNihve1E5c/SicrgltXHAqtHpKE7aXYX/WDR
SLubUwpGND5RCvobNajkR8nuiqu3ZucLvVReK+tyhibQ2C+02z6tlQwU3qUPoctf
uk+i4mJJmdz+bJcRWnUNeYfiJLQgpnk04CTH3JFP7p5GyScWdiwFr62Fa4Ip/ERQ
YyIyAxeuuQ==
-----END CERTIFICATE-----
