Certificate:
    Data:
        Version: 3 (0x2)
        Serial Number: 345 (0x159)
        Signature Algorithm: sha256WithRSAEncryption
        Issuer: CN = Intermediate-CA, O = Piter.NL, OU = crypto
        Validity
            Not Before: Apr 13 13:13:03 2020 GMT
            Not After : Aug 30 13:13:03 2047 GMT
        Subject: CN = Big HyperCorp Ltd., O = hypercorp.comp, OU = Acquisition
        Subject Public Key Info:
            Public Key Algorithm: rsaEncryption
                RSA Public-Key: (4096 bit)
                Modulus:
                    00:c4:21:55:61:93:67:cd:33:38:db:ef:75:56:1e:
                    ad:83:ab:06:a8:70:d6:5c:9c:16:7d:49:3a:3a:9f:
                    f4:ba:8d:85:99:49:78:f8:09:49:85:2f:96:95:bf:
                    09:22:e4:7d:23:d4:52:b7:7a:5c:a6:5e:25:34:94:
                    22:32:cd:4c:5f:88:ba:60:7b:19:2f:50:12:44:52:
                    a2:7b:2d:24:5c:fd:d2:32:76:cd:b0:4c:01:61:1c:
                    68:f4:25:91:c3:f1:f7:57:ad:b3:c6:7a:87:66:4a:
                    19:3a:89:f1:d3:8b:af:0b:cf:9f:65:75:71:f9:ce:
                    18:97:81:09:21:98:07:74:77:9f:e9:2b:a0:be:8e:
                    f6:b2:6b:5c:77:90:4d:f8:05:46:63:3a:5f:9c:16:
                    78:44:48:22:f3:21:02:fd:2d:ed:e0:9d:00:f2:86:
                    be:f1:1c:66:2c:3b:09:5c:26:bd:63:f7:96:1c:d3:
                    32:f8:9b:2c:2c:94:ed:1f:8e:8c:8f:88:d8:94:f5:
                    6a:67:b9:ff:e6:c3:5c:14:ef:17:b3:dc:dc:46:6f:
                    dd:de:09:d3:9f:a6:10:52:50:78:39:57:2d:70:c7:
                    cb:bf:8f:d1:4b:48:87:df:ad:6b:a5:cb:39:d8:1a:
                    2f:59:47:1a:de:3a:fe:72:8d:61:f7:11:e7:9a:10:
                    bb:ed:26:d6:34:24:59:ef:ce:cd:ba:39:83:6c:54:
                    8f:e9:3f:c1:f5:51:87:85:75:47:b6:77:f9:a0:b9:
                    5b:9c:a7:80:a7:47:b1:2d:21:66:cd:20:ad:37:47:
                    86:c0:74:88:14:21:55:19:fc:b2:ee:de:25:f6:03:
                    2f:a2:cc:5c:a1:a5:df:87:a4:de:98:f0:75:ba:9f:
                    bc:7f:43:36:b7:92:05:60:ff:50:46:bc:be:33:60:
                    b3:e0:dd:8f:fa:bb:02:e2:b0:b3:52:0e:e5:d6:c1:
                    4c:a4:de:92:05:04:4d:7c:17:79:63:6b:9b:f2:2b:
                    bc:c6:6c:9c:20:20:24:fe:5f:f5:08:bb:10:0c:06:
                    34:85:ab:72:b8:75:94:39:51:80:57:a4:8d:7b:2d:
                    9e:66:f0:18:4d:7e:a9:6e:34:ed:8f:b0:f6:fb:df:
                    b4:6d:47:d1:e5:95:1a:95:ff:1a:a2:ba:67:e3:13:
                    3a:80:8d:f2:b8:7d:4c:c9:47:50:29:37:5c:82:0b:
                    aa:dc:4c:8a:f8:0d:ad:40:63:d1:0f:9d:44:15:c5:
                    eb:19:c0:2d:4e:8c:8d:ae:76:3b:6d:0c:8f:54:61:
                    56:f1:d5:6e:48:7b:cd:52:80:4c:93:06:4a:5e:d3:
                    ce:71:51:84:21:20:ed:4e:79:c9:fb:09:7c:cf:73:
                    ca:23:59
                Exponent: 65537 (0x10001)
        X509v3 extensions:
            X509v3 Key Usage: 
                Digital Signature
            X509v3 Subject Alternative Name: 
                DNS:my.server.hypercorp.comp, DNS:alt-server.hypercorp.comp, email:Admin@hypercorp.comp
            X509v3 Subject Key Identifier: 
                3A:55:69:C8:2A:D2:7E:89:96:3E:CB:83:0F:89:0D:E9:AB:0C:53:5C
            X509v3 Authority Key Identifier: 
                keyid:44:CE:70:E5:B3:69:B7:60:5D:63:9D:DE:E1:6A:7F:AD:96:81:D9:4B

    Signature Algorithm: sha256WithRSAEncryption
         88:3d:80:e7:46:ad:b3:bd:da:c8:98:87:f2:0d:91:c9:be:e1:
         b7:29:16:8c:4b:bf:4a:0a:6b:a1:e4:5a:fe:76:72:d0:5d:2f:
         30:35:b6:6c:6c:bb:86:1e:96:12:d7:91:b4:bc:2b:4b:52:45:
         1d:d4:55:82:d8:36:98:c6:a2:1a:f9:5f:05:3e:f0:42:09:2c:
         33:3e:3b:e7:9a:89:51:a6:51:61:d9:ee:4c:70:8e:92:6e:32:
         83:ef:0d:81:26:62:dd:7b:5b:ab:01:a5:86:f3:56:b1:4e:2a:
         74:33:de:16:41:8a:2d:ce:59:f7:3a:e0:ce:7e:ee:b7:f2:b8:
         b9:63:18:6e:61:60:82:0f:fa:d1:62:eb:0b:eb:d1:64:a4:04:
         bc:e3:f8:f6:04:23:23:3c:15:9f:88:d3:33:18:d1:98:79:98:
         40:d0:92:c4:95:f3:01:a0:93:52:21:a4:65:ba:78:59:22:e0:
         eb:ae:07:8e:c9:b3:29:ab:f0:a1:6c:a6:ae:6b:ee:1b:20:ff:
         78:92:23:0e:d9:fc:45:a0:72:b3:3b:b5:44:83:f7:19:dd:45:
         ac:73:a2:9f:c8:b6:0a:14:40:00:71:ed:3b:bd:af:05:1e:fc:
         72:85:f3:c5:8d:81:cc:e8:5d:d1:49:da:a5:20:e6:c7:ab:5b:
         7c:f8:f9:53:15:cd:7b:fe:a8:3d:34:20:28:3f:91:4e:0c:c8:
         74:58:a8:3b:54:65:ca:2b:b4:b8:f3:99:e4:85:86:4f:ac:52:
         8b:37:55:91:48:1b:b5:df:8b:a0:bc:6a:8e:12:79:b8:f8:23:
         87:ea:dc:91:6b:bd:43:58:1f:ab:f2:41:93:38:42:36:9d:b0:
         02:97:a6:17:cd:9b:ef:fd:0d:df:5e:98:b0:b1:25:95:1d:ec:
         1d:d5:44:58:28:ec:8f:b9:fb:63:36:8e:26:59:15:dd:dd:59:
         54:6d:67:46:fe:b3:f2:5c:7d:7f:82:fb:27:12:a3:23:53:a6:
         2b:38:d4:68:b4:6b:72:c2:60:95:25:24:ed:8f:f1:0c:c5:48:
         9c:51:19:24:cb:50:b4:b4:60:9f:f6:1f:58:b9:f9:64:9e:c3:
         98:ed:8d:65:6f:3c:39:23:f4:56:e4:38:22:40:ef:c9:06:b8:
         d7:4b:0c:cf:fb:24:86:ff:c3:c0:31:d9:de:30:0b:3d:03:b9:
         96:70:f2:af:af:2e:b6:80:eb:25:99:c0:0c:e2:6c:86:8d:4e:
         fa:1d:a2:a5:e3:82:71:9e:f8:b7:4f:1e:54:23:29:4a:f6:7d:
         66:55:d8:b2:67:84:be:f8:1f:97:37:af:c6:52:e6:49:b2:ba:
         cb:13:79:bb:05:fd:b2:89
-----BEGIN CERTIFICATE-----
MIIFrTCCA5WgAwIBAgICAVkwDQYJKoZIhvcNAQELBQAwPjEYMBYGA1UEAwwPSW50
ZXJtZWRpYXRlLUNBMREwDwYDVQQKDAhQaXRlci5OTDEPMA0GA1UECwwGY3J5cHRv
MB4XDTIwMDQxMzEzMTMwM1oXDTQ3MDgzMDEzMTMwM1owTDEbMBkGA1UEAwwSQmln
IEh5cGVyQ29ycCBMdGQuMRcwFQYDVQQKDA5oeXBlcmNvcnAuY29tcDEUMBIGA1UE
CwwLQWNxdWlzaXRpb24wggIiMA0GCSqGSIb3DQEBAQUAA4ICDwAwggIKAoICAQDE
IVVhk2fNMzjb73VWHq2DqwaocNZcnBZ9STo6n/S6jYWZSXj4CUmFL5aVvwki5H0j
1FK3elymXiU0lCIyzUxfiLpgexkvUBJEUqJ7LSRc/dIyds2wTAFhHGj0JZHD8fdX
rbPGeodmShk6ifHTi68Lz59ldXH5zhiXgQkhmAd0d5/pK6C+jvaya1x3kE34BUZj
Ol+cFnhESCLzIQL9Le3gnQDyhr7xHGYsOwlcJr1j95Yc0zL4mywslO0fjoyPiNiU
9Wpnuf/mw1wU7xez3NxGb93eCdOfphBSUHg5Vy1wx8u/j9FLSIffrWulyznYGi9Z
RxreOv5yjWH3EeeaELvtJtY0JFnvzs26OYNsVI/pP8H1UYeFdUe2d/mguVucp4Cn
R7EtIWbNIK03R4bAdIgUIVUZ/LLu3iX2Ay+izFyhpd+HpN6Y8HW6n7x/Qza3kgVg
/1BGvL4zYLPg3Y/6uwLisLNSDuXWwUyk3pIFBE18F3lja5vyK7zGbJwgICT+X/UI
uxAMBjSFq3K4dZQ5UYBXpI17LZ5m8BhNfqluNO2PsPb737RtR9HllRqV/xqiumfj
EzqAjfK4fUzJR1ApN1yCC6rcTIr4Da1AY9EPnUQVxesZwC1OjI2udjttDI9UYVbx
1W5Ie81SgEyTBkpe085xUYQhIO1Oecn7CXzPc8ojWQIDAQABo4GmMIGjMAsGA1Ud
DwQEAwIHgDBUBgNVHREETTBLghhteS5zZXJ2ZXIuaHlwZXJjb3JwLmNvbXCCGWFs
dC1zZXJ2ZXIuaHlwZXJjb3JwLmNvbXCBFEFkbWluQGh5cGVyY29ycC5jb21wMB0G
A1UdDgQWBBQ6VWnIKtJ+iZY+y4MPiQ3pqwxTXDAfBgNVHSMEGDAWgBREznDls2m3
YF1jnd7han+tloHZSzANBgkqhkiG9w0BAQsFAAOCAgEAiD2A50ats73ayJiH8g2R
yb7htykWjEu/SgproeRa/nZy0F0vMDW2bGy7hh6WEteRtLwrS1JFHdRVgtg2mMai
GvlfBT7wQgksMz4755qJUaZRYdnuTHCOkm4yg+8NgSZi3XtbqwGlhvNWsU4qdDPe
FkGKLc5Z9zrgzn7ut/K4uWMYbmFggg/60WLrC+vRZKQEvOP49gQjIzwVn4jTMxjR
mHmYQNCSxJXzAaCTUiGkZbp4WSLg664HjsmzKavwoWymrmvuGyD/eJIjDtn8RaBy
szu1RIP3Gd1FrHOin8i2ChRAAHHtO72vBR78coXzxY2BzOhd0UnapSDmx6tbfPj5
UxXNe/6oPTQgKD+RTgzIdFioO1Rlyiu0uPOZ5IWGT6xSizdVkUgbtd+LoLxqjhJ5
uPgjh+rckWu9Q1gfq/JBkzhCNp2wApemF82b7/0N316YsLEllR3sHdVEWCjsj7n7
YzaOJlkV3d1ZVG1nRv6z8lx9f4L7JxKjI1OmKzjUaLRrcsJglSUk7Y/xDMVInFEZ
JMtQtLRgn/YfWLn5ZJ7DmO2NZW88OSP0VuQ4IkDvyQa410sMz/skhv/DwDHZ3jAL
PQO5lnDyr68utoDrJZnADOJsho1O+h2ipeOCcZ74t08eVCMpSvZ9ZlXYsmeEvvgf
lzevxlLmSbK6yxN5uwX9sok=
-----END CERTIFICATE-----
